; ModuleID = '29/254.c'
source_filename = "29/254.c"
target datalayout = "e-m:e-p270:32:32-p271:32:32-p272:64:64-i64:64-f80:128-n8:16:32:64-S128"
target triple = "x86_64-pc-linux-gnu"

@.str = private unnamed_addr constant [3 x i8] c"%d\00", align 1
@.str.1 = private unnamed_addr constant [6 x i8] c"%.3f\0A\00", align 1

; Function Attrs: noinline nounwind uwtable
define dso_local i32 @main() #0 {
  %1 = alloca i32, align 4
  %2 = alloca i32, align 4
  %3 = alloca i32, align 4
  %4 = alloca i32, align 4
  %5 = alloca [100 x i32], align 16
  %6 = alloca float, align 4
  %7 = alloca float, align 4
  %8 = alloca [100 x float], align 16
  %9 = alloca i32, align 4
  %10 = alloca i32, align 4
  %11 = alloca i32, align 4
  %12 = alloca float, align 4
  store i32 0, i32* %1, align 4
  %13 = call i32 (i8*, ...) @__isoc99_scanf(i8* getelementptr inbounds ([3 x i8], [3 x i8]* @.str, i64 0, i64 0), i32* %2)
  store i32 0, i32* %3, align 4
  br label %14

14:                                               ; preds = %23, %0
  %15 = load i32, i32* %3, align 4
  %16 = load i32, i32* %2, align 4
  %17 = icmp slt i32 %15, %16
  br i1 %17, label %18, label %26

18:                                               ; preds = %14
  %19 = load i32, i32* %3, align 4
  %20 = sext i32 %19 to i64
  %21 = getelementptr inbounds [100 x i32], [100 x i32]* %5, i64 0, i64 %20
  %22 = call i32 (i8*, ...) @__isoc99_scanf(i8* getelementptr inbounds ([3 x i8], [3 x i8]* @.str, i64 0, i64 0), i32* %21)
  br label %23

23:                                               ; preds = %18
  %24 = load i32, i32* %3, align 4
  %25 = add nsw i32 %24, 1
  store i32 %25, i32* %3, align 4
  br label %14

26:                                               ; preds = %14
  store i32 0, i32* %3, align 4
  br label %27

27:                                               ; preds = %69, %26
  %28 = load i32, i32* %3, align 4
  %29 = load i32, i32* %2, align 4
  %30 = icmp slt i32 %28, %29
  br i1 %30, label %31, label %72

31:                                               ; preds = %27
  store i32 1, i32* %9, align 4
  store i32 1, i32* %10, align 4
  store i32 0, i32* %11, align 4
  store float 0.000000e+00, float* %12, align 4
  %32 = load i32, i32* %3, align 4
  %33 = sext i32 %32 to i64
  %34 = getelementptr inbounds [100 x float], [100 x float]* %8, i64 0, i64 %33
  store float 0.000000e+00, float* %34, align 4
  store i32 0, i32* %4, align 4
  br label %35

35:                                               ; preds = %59, %31
  %36 = load i32, i32* %4, align 4
  %37 = load i32, i32* %3, align 4
  %38 = sext i32 %37 to i64
  %39 = getelementptr inbounds [100 x i32], [100 x i32]* %5, i64 0, i64 %38
  %40 = load i32, i32* %39, align 4
  %41 = icmp slt i32 %36, %40
  br i1 %41, label %42, label %62

42:                                               ; preds = %35
  %43 = load i32, i32* %9, align 4
  store i32 %43, i32* %11, align 4
  %44 = load i32, i32* %10, align 4
  store i32 %44, i32* %9, align 4
  %45 = load i32, i32* %11, align 4
  %46 = load i32, i32* %10, align 4
  %47 = add nsw i32 %45, %46
  store i32 %47, i32* %10, align 4
  %48 = load i32, i32* %10, align 4
  %49 = sitofp i32 %48 to float
  %50 = load i32, i32* %9, align 4
  %51 = sitofp i32 %50 to float
  %52 = fdiv float %49, %51
  store float %52, float* %12, align 4
  %53 = load float, float* %12, align 4
  %54 = load i32, i32* %3, align 4
  %55 = sext i32 %54 to i64
  %56 = getelementptr inbounds [100 x float], [100 x float]* %8, i64 0, i64 %55
  %57 = load float, float* %56, align 4
  %58 = fadd float %57, %53
  store float %58, float* %56, align 4
  br label %59

59:                                               ; preds = %42
  %60 = load i32, i32* %4, align 4
  %61 = add nsw i32 %60, 1
  store i32 %61, i32* %4, align 4
  br label %35

62:                                               ; preds = %35
  %63 = load i32, i32* %3, align 4
  %64 = sext i32 %63 to i64
  %65 = getelementptr inbounds [100 x float], [100 x float]* %8, i64 0, i64 %64
  %66 = load float, float* %65, align 4
  %67 = fpext float %66 to double
  %68 = call i32 (i8*, ...) @printf(i8* getelementptr inbounds ([6 x i8], [6 x i8]* @.str.1, i64 0, i64 0), double %67)
  br label %69

69:                                               ; preds = %62
  %70 = load i32, i32* %3, align 4
  %71 = add nsw i32 %70, 1
  store i32 %71, i32* %3, align 4
  br label %27

72:                                               ; preds = %27
  ret i32 0
}

declare dso_local i32 @__isoc99_scanf(i8*, ...) #1

declare dso_local i32 @printf(i8*, ...) #1


!llvm.module.flags = !{!0}
!llvm.ident = !{!1}

!0 = !{i32 1, !"wchar_size", i32 4}
!1 = !{!"clang version 10.0.0-4ubuntu1 "}
